; Function Attrs: mustprogress nofree norecurse nosync nounwind willreturn memory(argmem: readwrite) uwtable
define dso_local void @_ZN4Luau6LexemeC2ERKNS_8LocationENS0_4TypeEPKcm(ptr noundef nonnull writeonly align 8 captures(none) dereferenceable(32) initializes((0, 32)) %0, ptr noundef nonnull readonly align 4 captures(none) dereferenceable(16) %1, i32 noundef %2, ptr noundef %3, i64 noundef %4) unnamed_addr #2 align 2 {
  store i32 %2, ptr %0, align 8, !tbaa !8
  %6 = getelementptr inbounds nuw i8, ptr %0, i64 4
  tail call void @llvm.memcpy.p0.p0.i64(ptr noundef nonnull align 4 dereferenceable(16) %6, ptr noundef nonnull align 4 dereferenceable(16) %1, i64 16, i1 false), !tbaa.struct !13
  %7 = getelementptr inbounds nuw i8, ptr %0, i64 20
  %8 = trunc i64 %4 to i32
  store i32 %8, ptr %7, align 4, !tbaa !14
  %9 = getelementptr inbounds nuw i8, ptr %0, i64 24
  store ptr %3, ptr %9, align 8, !tbaa !15
  ret void
}